target datalayout = "e-m:e-p270:32:32-p271:32:32-p272:64:64-i64:64-i128:128-f80:128-n8:16:32:64-S128"
target triple = "x86_64-pc-linux-gnu"

%struct._lv_bar_t = type { %struct._lv_obj_t, i32, i32, i32, i32, %struct.lv_area_t, i8, %struct._lv_bar_anim_t, %struct._lv_bar_anim_t, i8 }
%struct._lv_obj_t = type { ptr, ptr, ptr, ptr, ptr, %struct.lv_area_t, i32, i16, i16 }
%struct.lv_area_t = type { i32, i32, i32, i32 }
%struct._lv_bar_anim_t = type { ptr, i32, i32, i32 }

; Function Attrs: nounwind uwtable
define i32 @lv_bar_get_value(ptr noundef %0) #0 {
  %2 = alloca ptr, align 8
  %3 = alloca ptr, align 8
  store ptr %0, ptr %2, align 8, !tbaa !3
  br label %4

4:                                                ; preds = %1
  br label %5

5:                                                ; preds = %4
  call void @llvm.lifetime.start.p0(i64 8, ptr %3) #5
  %6 = load ptr, ptr %2, align 8, !tbaa !3
  store ptr %6, ptr %3, align 8, !tbaa !3
  %7 = load ptr, ptr %3, align 8, !tbaa !3
  %8 = getelementptr inbounds nuw %struct._lv_bar_t, ptr %7, i32 0, i32 7
  %9 = getelementptr inbounds nuw %struct._lv_bar_anim_t, ptr %8, i32 0, i32 3
  %10 = load i32, ptr %9, align 8, !tbaa !29
  %11 = icmp ne i32 %10, -1
  br i1 %11, label %12, label %17

12:                                               ; preds = %5
  %13 = load ptr, ptr %3, align 8, !tbaa !3
  %14 = getelementptr inbounds nuw %struct._lv_bar_t, ptr %13, i32 0, i32 7
  %15 = getelementptr inbounds nuw %struct._lv_bar_anim_t, ptr %14, i32 0, i32 2
  %16 = load i32, ptr %15, align 4, !tbaa !30
  br label %21

17:                                               ; preds = %5
  %18 = load ptr, ptr %3, align 8, !tbaa !3
  %19 = getelementptr inbounds nuw %struct._lv_bar_t, ptr %18, i32 0, i32 1
  %20 = load i32, ptr %19, align 8, !tbaa !17
  br label %21

21:                                               ; preds = %17, %12
  %22 = phi i32 [ %16, %12 ], [ %20, %17 ]
  call void @llvm.lifetime.end.p0(i64 8, ptr %3) #5
  ret i32 %22
}