; Function Attrs: mustprogress nofree norecurse nosync nounwind willreturn memory(argmem: read) uwtable
define i32 @lv_bar_get_value(ptr nocapture noundef readonly %0) local_unnamed_addr #3 {
  %2 = getelementptr inbounds nuw i8, ptr %0, i64 120
  %3 = load i32, ptr %2, align 8, !tbaa !36
  %.not = icmp eq i32 %3, -1
  %.in.v = select i1 %.not, i64 64, i64 116
  %.in = getelementptr inbounds nuw i8, ptr %0, i64 %.in.v
  %4 = load i32, ptr %.in, align 4, !tbaa !22
  ret i32 %4
}